; Function Attrs: null_pointer_is_valid sspstrong uwtable
define internal void @dissect_pfcp_mar_id(ptr noundef %0, ptr noundef %1, ptr noundef %2, ptr noundef %3, i16 noundef zeroext %4, i8 zeroext %5, ptr noundef writeonly captures(address_is_null) %6) #0 {
  %8 = alloca i32, align 4
  call void @llvm.lifetime.start.p0(i64 4, ptr nonnull %8) #15
  %9 = load i32, ptr @hf_pfcp_mar_id, align 4
  %10 = call ptr @proto_tree_add_item_ret_uint(ptr noundef %2, i32 noundef %9, ptr noundef %0, i32 noundef 0, i32 noundef 2, i32 noundef 0, ptr noundef nonnull %8)
  %11 = load i32, ptr %8, align 4
  call void (ptr, ptr, ...) @proto_item_append_text(ptr noundef %3, ptr noundef nonnull @.str.2658, i32 noundef %11)
  %.not.i = icmp eq ptr %6, null
  br i1 %.not.i, label %decode_pfcp_mar_id.exit, label %12

12:                                               ; preds = %7
  %13 = load i32, ptr %8, align 4
  %14 = getelementptr inbounds nuw i8, ptr %6, i64 72
  store i32 %13, ptr %14, align 4
  br label %decode_pfcp_mar_id.exit

decode_pfcp_mar_id.exit:                          ; preds = %7, %12
  call void @llvm.lifetime.end.p0(i64 4, ptr nonnull %8) #15
  %15 = icmp ugt i16 %4, 2
  br i1 %15, label %16, label %18

16:                                               ; preds = %decode_pfcp_mar_id.exit
  %17 = call ptr @proto_tree_add_expert(ptr noundef %2, ptr noundef %1, ptr noundef nonnull @ei_pfcp_ie_data_not_decoded, ptr noundef %0, i32 noundef 2, i32 noundef -1)
  br label %18

18:                                               ; preds = %16, %decode_pfcp_mar_id.exit
  ret void
}